; Function Attrs: nounwind uwtable
define hidden i32 @mbedtls_ssl_tls13_crypto_init(ptr noundef %0) local_unnamed_addr #0 {
  %2 = tail call i32 @psa_crypto_init() #8
  %.not = icmp eq i32 %2, 0
  br i1 %.not, label %.split, label %.split4

.split4:                                          ; preds = %1
  tail call void @mbedtls_debug_print_ret(ptr noundef %0, i32 noundef 1, ptr noundef nonnull @.str, i32 noundef 45, ptr noundef nonnull @.str.1, i32 noundef %2) #8
  br label %.split

.split:                                           ; preds = %1, %.split4
  %.sink = phi i32 [ %2, %.split4 ], [ 0, %1 ]
  %3 = tail call i32 @psa_status_to_mbedtls(i32 noundef %.sink, ptr noundef nonnull @psa_to_ssl_errors, i64 noundef 7, ptr noundef nonnull @psa_generic_status_to_mbedtls) #8
  ret i32 %3
}